; Function Attrs: nounwind uwtable
define noalias noundef ptr @Seg_ManCollectObjEdges(ptr noundef readonly captures(none) %0, i32 noundef %1) local_unnamed_addr #0 {
  %3 = tail call noalias dereferenceable_or_null(16) ptr @malloc(i64 noundef 16) #16
  %4 = add i32 %1, -1
  %or.cond.i.i = icmp ult i32 %4, 7
  %spec.store.select.i.i = select i1 %or.cond.i.i, i32 8, i32 %1
  store i32 %spec.store.select.i.i, ptr %3, align 8, !tbaa !39
  %.not.i.i = icmp eq i32 %spec.store.select.i.i, 0
  br i1 %.not.i.i, label %Vec_WecStart.exit, label %5

5:                                                ; preds = %2
  %6 = sext i32 %spec.store.select.i.i to i64
  %7 = tail call noalias ptr @calloc(i64 noundef %6, i64 noundef 16) #19
  br label %Vec_WecStart.exit

Vec_WecStart.exit:                                ; preds = %2, %5
  %8 = phi ptr [ %7, %5 ], [ null, %2 ]
  %9 = getelementptr inbounds nuw i8, ptr %3, i64 4
  %10 = getelementptr inbounds nuw i8, ptr %3, i64 8
  store ptr %8, ptr %10, align 8, !tbaa !41
  store i32 %1, ptr %9, align 4, !tbaa !42
  %11 = getelementptr i8, ptr %0, i64 4
  %.val1617 = load i32, ptr %11, align 4, !tbaa !3
  %12 = icmp sgt i32 %.val1617, 1
  br i1 %12, label %.lr.ph, label %.critedge

.lr.ph:                                           ; preds = %Vec_WecStart.exit
  %13 = getelementptr i8, ptr %0, i64 8
  br label %14

14:                                               ; preds = %.lr.ph, %14
  %indvars.iv = phi i64 [ 0, %.lr.ph ], [ %indvars.iv.next, %14 ]
  %15 = or disjoint i64 %indvars.iv, 1
  %.val = load ptr, ptr %13, align 8, !tbaa !11
  %16 = getelementptr inbounds nuw i32, ptr %.val, i64 %indvars.iv
  %17 = load i32, ptr %16, align 4, !tbaa !32
  %18 = getelementptr inbounds nuw i32, ptr %.val, i64 %15
  %19 = load i32, ptr %18, align 4, !tbaa !32
  %20 = lshr exact i64 %indvars.iv, 1
  %21 = trunc nuw nsw i64 %20 to i32
  tail call fastcc void @Vec_WecPush(ptr noundef nonnull %3, i32 noundef %17, i32 noundef %21)
  tail call fastcc void @Vec_WecPush(ptr noundef nonnull %3, i32 noundef %19, i32 noundef %21)
  %indvars.iv.next = add nuw nsw i64 %indvars.iv, 2
  %22 = or disjoint i64 %indvars.iv.next, 1
  %.val16 = load i32, ptr %11, align 4, !tbaa !3
  %23 = sext i32 %.val16 to i64
  %24 = icmp slt i64 %22, %23
  br i1 %24, label %14, label %.critedge, !llvm.loop !43

.critedge:                                        ; preds = %14, %Vec_WecStart.exit
  ret ptr %3
}